target datalayout = "e-m:e-p270:32:32-p271:32:32-p272:64:64-i64:64-i128:128-f80:128-n8:16:32:64-S128"
target triple = "x86_64-pc-linux-gnu"

%struct.dtMeshTile = type { i32, i32, ptr, ptr, ptr, ptr, ptr, ptr, ptr, ptr, ptr, ptr, i32, i32, ptr }
%struct.dtMeshHeader = type { i32, i32, i32, i32, i32, i32, i32, i32, i32, i32, i32, i32, i32, i32, i32, float, float, float, [3 x float], [3 x float], float }
%struct.dtPoly = type { i32, [6 x i16], [6 x i16], i16, i8, i8 }

; Function Attrs: mustprogress uwtable
define void @_Z32duDebugDrawNavMeshPolysWithFlagsP11duDebugDrawRK9dtNavMeshtj(ptr noundef %0, ptr noundef nonnull align 8 dereferenceable(100) %1, i16 noundef zeroext %2, i32 noundef %3) #0 {
  %5 = alloca ptr, align 8
  %6 = alloca ptr, align 8
  %7 = alloca i16, align 2
  %8 = alloca i32, align 4
  %9 = alloca i32, align 4
  %10 = alloca ptr, align 8
  %11 = alloca i32, align 4
  %12 = alloca i32, align 4
  %13 = alloca ptr, align 8
  store ptr %0, ptr %5, align 8
  store ptr %1, ptr %6, align 8
  store i16 %2, ptr %7, align 2
  store i32 %3, ptr %8, align 4
  %14 = load ptr, ptr %5, align 8
  %15 = icmp ne ptr %14, null
  br i1 %15, label %17, label %16

16:                                               ; preds = %4
  br label %74

17:                                               ; preds = %4
  store i32 0, ptr %9, align 4
  br label %18

18:                                               ; preds = %71, %17
  %19 = load i32, ptr %9, align 4
  %20 = load ptr, ptr %6, align 8
  %21 = call noundef i32 @_ZNK9dtNavMesh11getMaxTilesEv(ptr noundef nonnull align 8 dereferenceable(100) %20)
  %22 = icmp slt i32 %19, %21
  br i1 %22, label %23, label %74

23:                                               ; preds = %18
  %24 = load ptr, ptr %6, align 8
  %25 = load i32, ptr %9, align 4
  %26 = call noundef ptr @_ZNK9dtNavMesh7getTileEi(ptr noundef nonnull align 8 dereferenceable(100) %24, i32 noundef %25)
  store ptr %26, ptr %10, align 8
  %27 = load ptr, ptr %10, align 8
  %28 = getelementptr inbounds %struct.dtMeshTile, ptr %27, i32 0, i32 2
  %29 = load ptr, ptr %28, align 8
  %30 = icmp ne ptr %29, null
  br i1 %30, label %32, label %31

31:                                               ; preds = %23
  br label %71

32:                                               ; preds = %23
  %33 = load ptr, ptr %6, align 8
  %34 = load ptr, ptr %10, align 8
  %35 = call noundef i32 @_ZNK9dtNavMesh14getPolyRefBaseEPK10dtMeshTile(ptr noundef nonnull align 8 dereferenceable(100) %33, ptr noundef %34)
  store i32 %35, ptr %11, align 4
  store i32 0, ptr %12, align 4
  br label %36

36:                                               ; preds = %67, %32
  %37 = load i32, ptr %12, align 4
  %38 = load ptr, ptr %10, align 8
  %39 = getelementptr inbounds %struct.dtMeshTile, ptr %38, i32 0, i32 2
  %40 = load ptr, ptr %39, align 8
  %41 = getelementptr inbounds %struct.dtMeshHeader, ptr %40, i32 0, i32 6
  %42 = load i32, ptr %41, align 4
  %43 = icmp slt i32 %37, %42
  br i1 %43, label %44, label %70

44:                                               ; preds = %36
  %45 = load ptr, ptr %10, align 8
  %46 = getelementptr inbounds %struct.dtMeshTile, ptr %45, i32 0, i32 3
  %47 = load ptr, ptr %46, align 8
  %48 = load i32, ptr %12, align 4
  %49 = sext i32 %48 to i64
  %50 = getelementptr inbounds %struct.dtPoly, ptr %47, i64 %49
  store ptr %50, ptr %13, align 8
  %51 = load ptr, ptr %13, align 8
  %52 = getelementptr inbounds %struct.dtPoly, ptr %51, i32 0, i32 3
  %53 = load i16, ptr %52, align 4
  %54 = zext i16 %53 to i32
  %55 = load i16, ptr %7, align 2
  %56 = zext i16 %55 to i32
  %57 = and i32 %54, %56
  %58 = icmp eq i32 %57, 0
  br i1 %58, label %59, label %60

59:                                               ; preds = %44
  br label %67

60:                                               ; preds = %44
  %61 = load ptr, ptr %5, align 8
  %62 = load ptr, ptr %6, align 8
  %63 = load i32, ptr %11, align 4
  %64 = load i32, ptr %12, align 4
  %65 = or i32 %63, %64
  %66 = load i32, ptr %8, align 4
  call void @_Z22duDebugDrawNavMeshPolyP11duDebugDrawRK9dtNavMeshjj(ptr noundef %61, ptr noundef nonnull align 8 dereferenceable(100) %62, i32 noundef %65, i32 noundef %66)
  br label %67

67:                                               ; preds = %60, %59
  %68 = load i32, ptr %12, align 4
  %69 = add nsw i32 %68, 1
  store i32 %69, ptr %12, align 4
  br label %36, !llvm.loop !23

70:                                               ; preds = %36
  br label %71

71:                                               ; preds = %70, %31
  %72 = load i32, ptr %9, align 4
  %73 = add nsw i32 %72, 1
  store i32 %73, ptr %9, align 4
  br label %18, !llvm.loop !24

74:                                               ; preds = %18, %16
  ret void
}