; Function Attrs: mustprogress uwtable
define void @_Z32duDebugDrawNavMeshPolysWithFlagsP11duDebugDrawRK9dtNavMeshtj(ptr noundef %0, ptr noundef nonnull align 8 dereferenceable(100) %1, i16 noundef zeroext %2, i32 noundef %3) local_unnamed_addr #0 {
  %.not = icmp eq ptr %0, null
  br i1 %.not, label %.loopexit23, label %.preheader

.preheader:                                       ; preds = %4
  %5 = tail call noundef i32 @_ZNK9dtNavMesh11getMaxTilesEv(ptr noundef nonnull align 8 dereferenceable(100) %1)
  %6 = icmp sgt i32 %5, 0
  br i1 %6, label %.lr.ph26, label %.loopexit23

.lr.ph26:                                         ; preds = %.preheader, %.loopexit
  %.025 = phi i32 [ %33, %.loopexit ], [ 0, %.preheader ]
  %7 = tail call noundef ptr @_ZNK9dtNavMesh7getTileEi(ptr noundef nonnull align 8 dereferenceable(100) %1, i32 noundef %.025)
  %8 = getelementptr inbounds nuw i8, ptr %7, i64 8
  %9 = load ptr, ptr %8, align 8
  %.not22 = icmp eq ptr %9, null
  br i1 %.not22, label %.loopexit, label %10

10:                                               ; preds = %.lr.ph26
  %11 = tail call noundef i32 @_ZNK9dtNavMesh14getPolyRefBaseEPK10dtMeshTile(ptr noundef nonnull align 8 dereferenceable(100) %1, ptr noundef nonnull %7)
  %12 = load ptr, ptr %8, align 8
  %13 = getelementptr inbounds nuw i8, ptr %12, i64 24
  %14 = load i32, ptr %13, align 4
  %15 = icmp sgt i32 %14, 0
  br i1 %15, label %.lr.ph, label %.loopexit

.lr.ph:                                           ; preds = %10
  %16 = getelementptr inbounds nuw i8, ptr %7, i64 16
  br label %17

17:                                               ; preds = %.lr.ph, %27
  %18 = phi ptr [ %12, %.lr.ph ], [ %28, %27 ]
  %indvars.iv = phi i64 [ 0, %.lr.ph ], [ %indvars.iv.next, %27 ]
  %19 = load ptr, ptr %16, align 8
  %20 = getelementptr inbounds nuw %struct.dtPoly, ptr %19, i64 %indvars.iv, i32 3
  %21 = load i16, ptr %20, align 4
  %22 = and i16 %21, %2
  %23 = icmp eq i16 %22, 0
  br i1 %23, label %27, label %24

24:                                               ; preds = %17
  %25 = trunc nuw nsw i64 %indvars.iv to i32
  %26 = or i32 %11, %25
  tail call void @_Z22duDebugDrawNavMeshPolyP11duDebugDrawRK9dtNavMeshjj(ptr noundef nonnull %0, ptr noundef nonnull align 8 dereferenceable(100) %1, i32 noundef %26, i32 noundef %3)
  %.pre = load ptr, ptr %8, align 8
  br label %27

27:                                               ; preds = %17, %24
  %28 = phi ptr [ %18, %17 ], [ %.pre, %24 ]
  %indvars.iv.next = add nuw nsw i64 %indvars.iv, 1
  %29 = getelementptr inbounds nuw i8, ptr %28, i64 24
  %30 = load i32, ptr %29, align 4
  %31 = sext i32 %30 to i64
  %32 = icmp slt i64 %indvars.iv.next, %31
  br i1 %32, label %17, label %.loopexit, !llvm.loop !24

.loopexit:                                        ; preds = %27, %10, %.lr.ph26
  %33 = add nuw nsw i32 %.025, 1
  %34 = tail call noundef i32 @_ZNK9dtNavMesh11getMaxTilesEv(ptr noundef nonnull align 8 dereferenceable(100) %1)
  %35 = icmp slt i32 %33, %34
  br i1 %35, label %.lr.ph26, label %.loopexit23, !llvm.loop !25

.loopexit23:                                      ; preds = %.loopexit, %.preheader, %4
  ret void
}